Certificate:
    Data:
        Version: 3 (0x2)
        Serial Number: 2 (0x2)
    Signature Algorithm: sha256WithRSAEncryption
        Issuer: C=AU, ST=Victoria, L=Melbourne, O=Monash, OU=MeRC, CN=Monash CA/name=EasyRSA/emailAddress=help@massive.org.au
        Validity
            Not Before: Aug  5 00:44:26 2015 GMT
            Not After : Aug  2 00:44:26 2025 GMT
        Subject: C=AU, ST=Victoria, L=Melbourne, O=Monash, OU=MeRC, CN=hpc.erc.monash.edu.au/name=EasyRSA/emailAddress=help@massive.org.au
        Subject Public Key Info:
            Public Key Algorithm: rsaEncryption
                Public-Key: (2048 bit)
                Modulus:
                    00:b4:7b:74:2f:6d:c8:76:85:de:65:76:7a:00:e8:
                    5f:25:ce:11:f6:87:ca:d2:f0:ce:44:31:f7:5b:c9:
                    5b:7e:f9:b8:0d:38:a7:b3:1d:e4:93:ae:f5:82:a9:
                    96:7f:55:ff:f7:4a:fe:7d:a8:20:9b:45:78:12:56:
                    21:90:d2:ca:5d:de:d1:86:68:b9:d7:8a:54:df:36:
                    22:71:75:f4:0b:70:76:3b:01:8f:65:cb:86:19:c6:
                    80:8d:d4:f1:97:45:ea:ce:a0:af:14:e8:c3:d3:c3:
                    47:b1:7b:04:ba:27:4f:45:3b:ee:bc:d8:40:23:24:
                    8a:0e:e1:76:e0:db:42:65:1e:e9:8e:91:88:50:33:
                    2c:5f:5d:72:97:4f:2a:2f:91:14:1c:6c:c7:91:91:
                    ea:b0:68:b6:66:ed:00:92:38:ec:4b:09:7d:75:d6:
                    3d:45:95:ea:fa:17:12:04:be:30:3c:81:d7:9b:ae:
                    73:2c:f4:41:4b:43:fe:84:9b:79:87:f1:c3:6d:91:
                    32:38:85:68:04:74:87:e6:8b:b3:b2:b5:09:98:e4:
                    95:f3:79:bf:aa:03:39:15:e4:66:91:2d:ac:64:92:
                    9e:f6:32:dc:2b:ab:88:9b:47:16:5e:ba:7b:65:17:
                    b0:92:ae:64:1c:de:6b:92:e5:60:0c:02:ec:da:51:
                    59:f3
                Exponent: 65537 (0x10001)
        X509v3 extensions:
            X509v3 Basic Constraints: 
                CA:FALSE
            Netscape Comment: 
                Easy-RSA Generated Certificate
            X509v3 Subject Key Identifier: 
                6A:1A:D1:74:5D:CB:58:D3:45:67:4A:1E:BA:AD:BF:3E:7D:52:4B:D8
            X509v3 Authority Key Identifier: 
                keyid:50:24:3A:61:59:41:72:B9:05:23:52:C4:8C:37:C5:C6:09:68:F6:91
                DirName:/C=AU/ST=Victoria/L=Melbourne/O=Monash/OU=MeRC/CN=Monash CA/name=EasyRSA/emailAddress=help@massive.org.au
                serial:CF:7A:9C:05:95:C3:2C:34

            X509v3 Extended Key Usage: 
                TLS Web Client Authentication
            X509v3 Key Usage: 
                Digital Signature
    Signature Algorithm: sha256WithRSAEncryption
         a3:36:12:77:34:53:d5:87:cc:d7:07:c9:ee:d2:3d:36:0e:1b:
         02:e0:9f:8d:da:79:36:e9:77:67:c8:9d:68:5b:c4:2e:81:b1:
         ed:25:d0:6d:1f:70:68:c7:09:c2:86:d5:4a:da:0d:62:81:a8:
         a3:4a:2e:ba:6b:da:d6:d5:c5:ae:bf:a4:69:04:99:50:70:95:
         8e:c2:4a:1d:37:78:eb:5b:d8:e3:04:c5:06:1a:33:a8:0b:14:
         42:7c:0f:1b:fd:b8:d8:6e:0a:7f:a0:05:6d:32:ee:fb:12:ed:
         57:60:c3:b5:d9:ad:13:a0:96:9d:ff:4b:98:d3:a5:3e:75:35:
         15:d7:26:50:39:c5:52:d3:2c:65:ba:21:ea:b6:4a:25:31:55:
         fc:db:9c:e4:c2:cf:99:56:50:19:b2:04:45:03:2f:bf:e1:86:
         ae:2b:c3:84:e4:b8:42:2b:d1:e5:99:ff:8c:89:93:b9:ef:2d:
         36:be:a5:07:77:70:8d:1a:df:71:f1:67:60:30:c7:64:ee:8d:
         3d:5d:b9:86:e9:1d:bb:0a:bf:3b:64:40:23:53:ab:0f:ab:3b:
         ce:33:20:a0:d1:c0:75:38:f7:43:86:88:5b:c4:a2:64:9a:c7:
         df:d3:d6:74:d0:9c:0f:ca:fd:fa:42:e7:9c:30:d3:49:94:8d:
         13:c6:2c:1c
-----BEGIN CERTIFICATE-----
MIIFHDCCBASgAwIBAgIBAjANBgkqhkiG9w0BAQsFADCBnjELMAkGA1UEBhMCQVUx
ETAPBgNVBAgTCFZpY3RvcmlhMRIwEAYDVQQHEwlNZWxib3VybmUxDzANBgNVBAoT
Bk1vbmFzaDENMAsGA1UECxMETWVSQzESMBAGA1UEAxMJTW9uYXNoIENBMRAwDgYD
VQQpEwdFYXN5UlNBMSIwIAYJKoZIhvcNAQkBFhNoZWxwQG1hc3NpdmUub3JnLmF1
MB4XDTE1MDgwNTAwNDQyNloXDTI1MDgwMjAwNDQyNlowgaoxCzAJBgNVBAYTAkFV
MREwDwYDVQQIEwhWaWN0b3JpYTESMBAGA1UEBxMJTWVsYm91cm5lMQ8wDQYDVQQK
EwZNb25hc2gxDTALBgNVBAsTBE1lUkMxHjAcBgNVBAMTFWhwYy5lcmMubW9uYXNo
LmVkdS5hdTEQMA4GA1UEKRMHRWFzeVJTQTEiMCAGCSqGSIb3DQEJARYTaGVscEBt
YXNzaXZlLm9yZy5hdTCCASIwDQYJKoZIhvcNAQEBBQADggEPADCCAQoCggEBALR7
dC9tyHaF3mV2egDoXyXOEfaHytLwzkQx91vJW375uA04p7Md5JOu9YKpln9V//dK
/n2oIJtFeBJWIZDSyl3e0YZoudeKVN82InF19AtwdjsBj2XLhhnGgI3U8ZdF6s6g
rxTow9PDR7F7BLonT0U77rzYQCMkig7hduDbQmUe6Y6RiFAzLF9dcpdPKi+RFBxs
x5GR6rBotmbtAJI47EsJfXXWPUWV6voXEgS+MDyB15uucyz0QUtD/oSbeYfxw22R
MjiFaAR0h+aLs7K1CZjklfN5v6oDORXkZpEtrGSSnvYy3CuriJtHFl66e2UXsJKu
ZBzea5LlYAwC7NpRWfMCAwEAAaOCAVUwggFRMAkGA1UdEwQCMAAwLQYJYIZIAYb4
QgENBCAWHkVhc3ktUlNBIEdlbmVyYXRlZCBDZXJ0aWZpY2F0ZTAdBgNVHQ4EFgQU
ahrRdF3LWNNFZ0oeuq2/Pn1SS9gwgdMGA1UdIwSByzCByIAUUCQ6YVlBcrkFI1LE
jDfFxglo9pGhgaSkgaEwgZ4xCzAJBgNVBAYTAkFVMREwDwYDVQQIEwhWaWN0b3Jp
YTESMBAGA1UEBxMJTWVsYm91cm5lMQ8wDQYDVQQKEwZNb25hc2gxDTALBgNVBAsT
BE1lUkMxEjAQBgNVBAMTCU1vbmFzaCBDQTEQMA4GA1UEKRMHRWFzeVJTQTEiMCAG
CSqGSIb3DQEJARYTaGVscEBtYXNzaXZlLm9yZy5hdYIJAM96nAWVwyw0MBMGA1Ud
JQQMMAoGCCsGAQUFBwMCMAsGA1UdDwQEAwIHgDANBgkqhkiG9w0BAQsFAAOCAQEA
ozYSdzRT1YfM1wfJ7tI9Ng4bAuCfjdp5Nul3Z8idaFvELoGx7SXQbR9waMcJwobV
StoNYoGoo0ouumva1tXFrr+kaQSZUHCVjsJKHTd461vY4wTFBhozqAsUQnwPG/24
2G4Kf6AFbTLu+xLtV2DDtdmtE6CWnf9LmNOlPnU1FdcmUDnFUtMsZboh6rZKJTFV
/Nuc5MLPmVZQGbIERQMvv+GGrivDhOS4QivR5Zn/jImTue8tNr6lB3dwjRrfcfFn
YDDHZO6NPV25hukduwq/O2RAI1OrD6s7zjMgoNHAdTj3Q4aIW8SiZJrH39PWdNCc
D8r9+kLnnDDTSZSNE8YsHA==
-----END CERTIFICATE-----
